target datalayout = "e-m:e-p270:32:32-p271:32:32-p272:64:64-i64:64-i128:128-f80:128-n8:16:32:64-S128"
target triple = "x86_64-pc-linux-gnu"

@mpd_free = external hidden global ptr, align 8
@.str.14 = private unnamed_addr constant [4 x i8] c"%s\0A\00", align 1
@.str.15 = private unnamed_addr constant [26 x i8] c"mpd_fprint: output error\0A\00", align 1

; Function Attrs: nounwind uwtable
define hidden ptr @mpd_to_sci(ptr noundef %0, i32 noundef %1) #0 {
  %3 = alloca ptr, align 8
  %4 = alloca i32, align 4
  %5 = alloca ptr, align 8
  %6 = alloca i32, align 4
  store ptr %0, ptr %3, align 8, !tbaa !3
  store i32 %1, ptr %4, align 4, !tbaa !25
  call void @llvm.lifetime.start.p0(i64 8, ptr %5) #10
  call void @llvm.lifetime.start.p0(i64 4, ptr %6) #10
  store i32 2, ptr %6, align 4, !tbaa !25
  %7 = load i32, ptr %4, align 4, !tbaa !25
  %8 = icmp ne i32 %7, 0
  %9 = select i1 %8, i32 1, i32 0
  %10 = load i32, ptr %6, align 4, !tbaa !25
  %11 = or i32 %10, %9
  store i32 %11, ptr %6, align 4, !tbaa !25
  %12 = load ptr, ptr %3, align 8, !tbaa !3
  %13 = load i32, ptr %6, align 4, !tbaa !25
  %14 = call i64 @_mpd_to_string(ptr noundef %5, ptr noundef %12, i32 noundef %13, i64 noundef 1)
  %15 = load ptr, ptr %5, align 8, !tbaa !8
  call void @llvm.lifetime.end.p0(i64 4, ptr %6) #10
  call void @llvm.lifetime.end.p0(i64 8, ptr %5) #10
  ret ptr %15
}

; Function Attrs: nounwind uwtable
define hidden void @mpd_fprint(ptr noundef %0, ptr noundef %1) #0 {
  %3 = alloca ptr, align 8
  %4 = alloca ptr, align 8
  %5 = alloca ptr, align 8
  store ptr %0, ptr %3, align 8, !tbaa !80
  store ptr %1, ptr %4, align 8, !tbaa !3
  call void @llvm.lifetime.start.p0(i64 8, ptr %5) #10
  %6 = load ptr, ptr %4, align 8, !tbaa !3
  %7 = call ptr @mpd_to_sci(ptr noundef %6, i32 noundef 1)
  store ptr %7, ptr %5, align 8, !tbaa !8
  %8 = load ptr, ptr %5, align 8, !tbaa !8
  %9 = icmp ne ptr %8, null
  br i1 %9, label %10, label %16

10:                                               ; preds = %2
  %11 = load ptr, ptr %3, align 8, !tbaa !80
  %12 = load ptr, ptr %5, align 8, !tbaa !8
  %13 = call i32 (ptr, ptr, ...) @fprintf(ptr noundef %11, ptr noundef @.str.14, ptr noundef %12) #10
  %14 = load ptr, ptr @mpd_free, align 8, !tbaa !70
  %15 = load ptr, ptr %5, align 8, !tbaa !8
  call void %14(ptr noundef %15)
  br label %19

16:                                               ; preds = %2
  %17 = load ptr, ptr %3, align 8, !tbaa !80
  %18 = call i32 @fputs(ptr noundef @.str.15, ptr noundef %17)
  br label %19

19:                                               ; preds = %16, %10
  call void @llvm.lifetime.end.p0(i64 8, ptr %5) #10
  ret void
}