; Function Attrs: nounwind uwtable
define hidden void @mpd_fprint(ptr noundef captures(none) %0, ptr noundef %1) local_unnamed_addr #0 {
  %3 = alloca ptr, align 8
  call void @llvm.lifetime.start.p0(i64 8, ptr nonnull %3) #18
  %4 = call fastcc i64 @_mpd_to_string(ptr noundef nonnull %3, ptr noundef %1, i32 noundef 3, i64 noundef 1)
  %5 = load ptr, ptr %3, align 8, !tbaa !26
  call void @llvm.lifetime.end.p0(i64 8, ptr nonnull %3) #18
  %.not = icmp eq ptr %5, null
  br i1 %.not, label %9, label %6

6:                                                ; preds = %2
  %7 = tail call i32 (ptr, ptr, ...) @fprintf(ptr noundef %0, ptr noundef nonnull @.str.14, ptr noundef nonnull %5) #18
  %8 = load ptr, ptr @mpd_free, align 8, !tbaa !60
  tail call void %8(ptr noundef nonnull %5) #18
  br label %11

9:                                                ; preds = %2
  %10 = tail call i64 @fwrite(ptr nonnull @.str.15, i64 25, i64 1, ptr %0)
  br label %11

11:                                               ; preds = %9, %6
  ret void
}